target datalayout = "e-m:e-p270:32:32-p271:32:32-p272:64:64-i64:64-i128:128-f80:128-n8:16:32:64-S128"
target triple = "x86_64-pc-linux-gnu"

%struct.H5CX_dxpl_cache_t = type { i64, ptr, ptr, i32, [3 x double], i64, i32, %struct.H5Z_cb_t, ptr, %struct.H5T_vlen_alloc_info_t, %struct.H5T_conv_cb_t, i32, i32, i32, i8 }
%struct.H5Z_cb_t = type { ptr, ptr }
%struct.H5T_vlen_alloc_info_t = type { ptr, ptr, ptr, ptr }
%struct.H5T_conv_cb_t = type { ptr, ptr }
%struct.H5CX_node_t = type { %struct.H5CX_t, ptr }
%struct.H5CX_t = type { i64, ptr, i64, ptr, i64, ptr, i64, ptr, i64, ptr, i64, ptr, i64, i32, i64, i8, ptr, i8, ptr, i8, i32, i8, [3 x double], i8, i64, i8, i32, i8, %struct.H5Z_cb_t, i8, ptr, i8, %struct.H5T_vlen_alloc_info_t, i8, %struct.H5T_conv_cb_t, i8, i32, i8, i8, i8, i32, i8, i8, i32, i8, i8, i32, i8, i32, i8, i64, i8, i8, i8, i8, i8, ptr, i8, ptr, i8, i32, i8, i32, i8, %struct.H5VL_connector_prop_t, i8, ptr, i8 }
%struct.H5VL_connector_prop_t = type { i64, ptr }

@H5CX_def_dxpl_cache = internal global %struct.H5CX_dxpl_cache_t zeroinitializer, align 8
@H5P_LST_DATASET_XFER_ID_g = external global i64, align 8
@.str = private unnamed_addr constant [98 x i8] c"generated/home/dtcxzyw/WorkSpace/Projects/compilers/llvm-opt-benchmark/bench/hdf5/hdf5/src/H5CX.c\00", align 1
@H5E_CONTEXT_g = external global i64, align 8
@H5E_BADTYPE_g = external global i64, align 8
@.str.2 = private unnamed_addr constant [18 x i8] c"btree_split_ratio\00", align 1
@H5E_CANTGET_g = external global i64, align 8
@H5CX_head_g = internal global ptr null, align 8
@.str.56 = private unnamed_addr constant [24 x i8] c"can't get property list\00", align 1
@__func__.H5CX_get_btree_split_ratios = private unnamed_addr constant [28 x i8] c"H5CX_get_btree_split_ratios\00", align 1
@.str.75 = private unnamed_addr constant [38 x i8] c"can't retrieve value from API context\00", align 1

; Function Attrs: nounwind uwtable
define i32 @H5CX_get_btree_split_ratios(ptr noundef %0) #0 {
  %2 = alloca ptr, align 8
  %3 = alloca ptr, align 8
  %4 = alloca i32, align 4
  %5 = alloca i8, align 1
  store ptr %0, ptr %2, align 8
  store ptr null, ptr %3, align 8
  store i32 0, ptr %4, align 4
  store i8 0, ptr %5, align 1
  store ptr @H5CX_head_g, ptr %3, align 8
  %6 = load ptr, ptr %3, align 8
  %7 = load ptr, ptr %6, align 8
  %8 = getelementptr inbounds %struct.H5CX_node_t, ptr %7, i32 0, i32 0
  %9 = getelementptr inbounds %struct.H5CX_t, ptr %8, i32 0, i32 23
  %10 = load i8, ptr %9, align 8
  %11 = trunc i8 %10 to i1
  br i1 %11, label %93, label %12

12:                                               ; preds = %1
  %13 = load ptr, ptr %3, align 8
  %14 = load ptr, ptr %13, align 8
  %15 = getelementptr inbounds %struct.H5CX_node_t, ptr %14, i32 0, i32 0
  %16 = getelementptr inbounds %struct.H5CX_t, ptr %15, i32 0, i32 0
  %17 = load i64, ptr %16, align 8
  %18 = load i64, ptr @H5P_LST_DATASET_XFER_ID_g, align 8
  %19 = icmp eq i64 %17, %18
  br i1 %19, label %20, label %25

20:                                               ; preds = %12
  %21 = load ptr, ptr %3, align 8
  %22 = load ptr, ptr %21, align 8
  %23 = getelementptr inbounds %struct.H5CX_node_t, ptr %22, i32 0, i32 0
  %24 = getelementptr inbounds %struct.H5CX_t, ptr %23, i32 0, i32 22
  call void @llvm.memcpy.p0.p0.i64(ptr align 8 %24, ptr align 8 getelementptr inbounds (%struct.H5CX_dxpl_cache_t, ptr @H5CX_def_dxpl_cache, i32 0, i32 4), i64 24, i1 false)
  br label %88

25:                                               ; preds = %12
  %26 = load ptr, ptr %3, align 8
  %27 = load ptr, ptr %26, align 8
  %28 = getelementptr inbounds %struct.H5CX_node_t, ptr %27, i32 0, i32 0
  %29 = getelementptr inbounds %struct.H5CX_t, ptr %28, i32 0, i32 1
  %30 = load ptr, ptr %29, align 8
  %31 = icmp eq ptr null, %30
  br i1 %31, label %32, label %60

32:                                               ; preds = %25
  %33 = load ptr, ptr %3, align 8
  %34 = load ptr, ptr %33, align 8
  %35 = getelementptr inbounds %struct.H5CX_node_t, ptr %34, i32 0, i32 0
  %36 = getelementptr inbounds %struct.H5CX_t, ptr %35, i32 0, i32 0
  %37 = load i64, ptr %36, align 8
  %38 = call ptr @H5I_object(i64 noundef %37)
  %39 = load ptr, ptr %3, align 8
  %40 = load ptr, ptr %39, align 8
  %41 = getelementptr inbounds %struct.H5CX_node_t, ptr %40, i32 0, i32 0
  %42 = getelementptr inbounds %struct.H5CX_t, ptr %41, i32 0, i32 1
  store ptr %38, ptr %42, align 8
  %43 = icmp eq ptr null, %38
  br i1 %43, label %44, label %59

44:                                               ; preds = %32
  br label %45

45:                                               ; preds = %44
  br label %46

46:                                               ; preds = %45
  br label %47

47:                                               ; preds = %46
  %48 = load i64, ptr @H5E_CONTEXT_g, align 8
  %49 = load i64, ptr @H5E_BADTYPE_g, align 8
  %50 = call i32 (ptr, ptr, i32, i64, i64, ptr, ...) @H5E_printf_stack(ptr noundef @.str, ptr noundef @__func__.H5CX_get_btree_split_ratios, i32 noundef 1870, i64 noundef %48, i64 noundef %49, ptr noundef @.str.56)
  br label %51

51:                                               ; preds = %47
  store i8 1, ptr %5, align 1
  %52 = load i8, ptr %5, align 1
  %53 = trunc i8 %52 to i1
  %54 = zext i1 %53 to i8
  store i8 %54, ptr %5, align 1
  br label %55

55:                                               ; preds = %51
  br label %56

56:                                               ; preds = %55
  store i32 -1, ptr %4, align 4
  br label %99

57:                                               ; No predecessors!
  br label %58

58:                                               ; preds = %57
  br label %59

59:                                               ; preds = %58, %32
  br label %60

60:                                               ; preds = %59, %25
  %61 = load ptr, ptr %3, align 8
  %62 = load ptr, ptr %61, align 8
  %63 = getelementptr inbounds %struct.H5CX_node_t, ptr %62, i32 0, i32 0
  %64 = getelementptr inbounds %struct.H5CX_t, ptr %63, i32 0, i32 1
  %65 = load ptr, ptr %64, align 8
  %66 = load ptr, ptr %3, align 8
  %67 = load ptr, ptr %66, align 8
  %68 = getelementptr inbounds %struct.H5CX_node_t, ptr %67, i32 0, i32 0
  %69 = getelementptr inbounds %struct.H5CX_t, ptr %68, i32 0, i32 22
  %70 = call i32 @H5P_get(ptr noundef %65, ptr noundef @.str.2, ptr noundef %69)
  %71 = icmp slt i32 %70, 0
  br i1 %71, label %72, label %87

72:                                               ; preds = %60
  br label %73

73:                                               ; preds = %72
  br label %74

74:                                               ; preds = %73
  br label %75

75:                                               ; preds = %74
  %76 = load i64, ptr @H5E_CONTEXT_g, align 8
  %77 = load i64, ptr @H5E_CANTGET_g, align 8
  %78 = call i32 (ptr, ptr, i32, i64, i64, ptr, ...) @H5E_printf_stack(ptr noundef @.str, ptr noundef @__func__.H5CX_get_btree_split_ratios, i32 noundef 1870, i64 noundef %76, i64 noundef %77, ptr noundef @.str.75)
  br label %79

79:                                               ; preds = %75
  store i8 1, ptr %5, align 1
  %80 = load i8, ptr %5, align 1
  %81 = trunc i8 %80 to i1
  %82 = zext i1 %81 to i8
  store i8 %82, ptr %5, align 1
  br label %83

83:                                               ; preds = %79
  br label %84

84:                                               ; preds = %83
  store i32 -1, ptr %4, align 4
  br label %99

85:                                               ; No predecessors!
  br label %86

86:                                               ; preds = %85
  br label %87

87:                                               ; preds = %86, %60
  br label %88

88:                                               ; preds = %87, %20
  %89 = load ptr, ptr %3, align 8
  %90 = load ptr, ptr %89, align 8
  %91 = getelementptr inbounds %struct.H5CX_node_t, ptr %90, i32 0, i32 0
  %92 = getelementptr inbounds %struct.H5CX_t, ptr %91, i32 0, i32 23
  store i8 1, ptr %92, align 8
  br label %93

93:                                               ; preds = %88, %1
  %94 = load ptr, ptr %2, align 8
  %95 = load ptr, ptr %3, align 8
  %96 = load ptr, ptr %95, align 8
  %97 = getelementptr inbounds %struct.H5CX_node_t, ptr %96, i32 0, i32 0
  %98 = getelementptr inbounds %struct.H5CX_t, ptr %97, i32 0, i32 22
  call void @llvm.memcpy.p0.p0.i64(ptr align 8 %94, ptr align 8 %98, i64 24, i1 false)
  br label %99

99:                                               ; preds = %93, %84, %56
  %100 = load i32, ptr %4, align 4
  ret i32 %100
}