; Function Attrs: nounwind uwtable
define range(i32 -1, 1) i32 @H5CX_get_btree_split_ratios(ptr nocapture noundef writeonly %0) local_unnamed_addr #0 {
  %2 = load ptr, ptr @H5CX_head_g, align 8
  %3 = getelementptr inbounds i8, ptr %2, i64 192
  %4 = load i8, ptr %3, align 8
  %5 = trunc i8 %4 to i1
  br i1 %5, label %38, label %6

6:                                                ; preds = %1
  %7 = load i64, ptr %2, align 8
  %8 = load i64, ptr @H5P_LST_DATASET_XFER_ID_g, align 8
  %9 = icmp eq i64 %7, %8
  br i1 %9, label %10, label %12

10:                                               ; preds = %6
  %11 = getelementptr inbounds i8, ptr %2, i64 168
  tail call void @llvm.memcpy.p0.p0.i64(ptr noundef nonnull align 8 dereferenceable(24) %11, ptr noundef nonnull align 8 dereferenceable(24) getelementptr inbounds (i8, ptr @H5CX_def_dxpl_cache, i64 32), i64 24, i1 false)
  br label %35

12:                                               ; preds = %6
  %13 = getelementptr inbounds i8, ptr %2, i64 8
  %14 = load ptr, ptr %13, align 8
  %15 = icmp eq ptr %14, null
  br i1 %15, label %16, label %25

16:                                               ; preds = %12
  %17 = tail call ptr @H5I_object(i64 noundef %7) #13
  %18 = load ptr, ptr @H5CX_head_g, align 8
  %19 = getelementptr inbounds i8, ptr %18, i64 8
  store ptr %17, ptr %19, align 8
  %20 = icmp eq ptr %17, null
  br i1 %20, label %21, label %25

21:                                               ; preds = %16
  %22 = load i64, ptr @H5E_CONTEXT_g, align 8
  %23 = load i64, ptr @H5E_BADTYPE_g, align 8
  %24 = tail call i32 (ptr, ptr, i32, i64, i64, ptr, ...) @H5E_printf_stack(ptr noundef nonnull @.str, ptr noundef nonnull @__func__.H5CX_get_btree_split_ratios, i32 noundef 1870, i64 noundef %22, i64 noundef %23, ptr noundef nonnull @.str.56) #13
  br label %41

25:                                               ; preds = %16, %12
  %26 = phi ptr [ %17, %16 ], [ %14, %12 ]
  %27 = phi ptr [ %18, %16 ], [ %2, %12 ]
  %28 = getelementptr inbounds i8, ptr %27, i64 168
  %29 = tail call i32 @H5P_get(ptr noundef nonnull %26, ptr noundef nonnull @.str.2, ptr noundef nonnull %28) #13
  %30 = icmp slt i32 %29, 0
  br i1 %30, label %31, label %._crit_edge

._crit_edge:                                      ; preds = %25
  %.pre = load ptr, ptr @H5CX_head_g, align 8
  br label %35

31:                                               ; preds = %25
  %32 = load i64, ptr @H5E_CONTEXT_g, align 8
  %33 = load i64, ptr @H5E_CANTGET_g, align 8
  %34 = tail call i32 (ptr, ptr, i32, i64, i64, ptr, ...) @H5E_printf_stack(ptr noundef nonnull @.str, ptr noundef nonnull @__func__.H5CX_get_btree_split_ratios, i32 noundef 1870, i64 noundef %32, i64 noundef %33, ptr noundef nonnull @.str.75) #13
  br label %41

35:                                               ; preds = %._crit_edge, %10
  %36 = phi ptr [ %.pre, %._crit_edge ], [ %2, %10 ]
  %37 = getelementptr inbounds i8, ptr %36, i64 192
  store i8 1, ptr %37, align 8
  br label %38

38:                                               ; preds = %35, %1
  %39 = phi ptr [ %36, %35 ], [ %2, %1 ]
  %40 = getelementptr inbounds i8, ptr %39, i64 168
  tail call void @llvm.memcpy.p0.p0.i64(ptr noundef nonnull align 8 dereferenceable(24) %0, ptr noundef nonnull align 8 dereferenceable(24) %40, i64 24, i1 false)
  br label %41

41:                                               ; preds = %38, %31, %21
  %.0 = phi i32 [ 0, %38 ], [ -1, %21 ], [ -1, %31 ]
  ret i32 %.0
}